target datalayout = "e-m:e-p270:32:32-p271:32:32-p272:64:64-i64:64-i128:128-f80:128-n8:16:32:64-S128"
target triple = "x86_64-pc-linux-gnu"

%class.VM_HeapDumper = type { %class.VM_GC_Operation.base, [7 x i8], %class.WorkerTask.base, %class.UnmountedVThreadDumper, ptr, ptr, ptr, i8, ptr, ptr, i32, i32, i32, i32, i32, ptr, ptr }
%class.VM_GC_Operation.base = type <{ %class.VM_GC_Sync_Operation, i32, i32, i8, i8, [2 x i8], i32, i8 }>
%class.VM_GC_Sync_Operation = type { %class.VM_Operation }
%class.VM_Operation = type { ptr, ptr }
%class.WorkerTask.base = type <{ ptr, ptr, i32 }>
%class.UnmountedVThreadDumper = type { ptr }
%class.ParallelObjectIterator = type { ptr }

@_ZN13VM_HeapDumper14_global_dumperE = hidden global ptr null, align 8
@_ZN13VM_HeapDumper14_global_writerE = hidden global ptr null, align 8
@.str.16 = private unnamed_addr constant [47 x i8] c"GC locker is held; pre-heapdump GC was skipped\00", align 1
@_ZN8Universe14_collectedHeapE = external global ptr, align 8
@_ZN8GCLocker15_jni_lock_countE = external global i32, align 4

; Function Attrs: mustprogress nounwind uwtable
define linkonce_odr hidden void @_ZN8GCLocker21verify_critical_countEv() #1 comdat align 2 {
  ret void
}

; Function Attrs: mustprogress nounwind uwtable
define linkonce_odr hidden noundef zeroext i1 @_ZN8GCLocker18is_active_internalEv() #1 comdat align 2 {
  call void @_ZN8GCLocker21verify_critical_countEv()
  %1 = load volatile i32, ptr @_ZN8GCLocker15_jni_lock_countE, align 4
  %2 = icmp sgt i32 %1, 0
  ret i1 %2
}

; Function Attrs: mustprogress nounwind uwtable
define linkonce_odr hidden void @_ZN13VM_HeapDumper19clear_global_writerEv(ptr noundef nonnull align 8 dereferenceable(160) %0) #1 comdat align 2 {
  %2 = alloca ptr, align 8
  store ptr %0, ptr %2, align 8
  store ptr null, ptr @_ZN13VM_HeapDumper14_global_writerE, align 8
  ret void
}

; Function Attrs: mustprogress nounwind uwtable
define linkonce_odr hidden void @_ZN13VM_HeapDumper19clear_global_dumperEv(ptr noundef nonnull align 8 dereferenceable(160) %0) #1 comdat align 2 {
  %2 = alloca ptr, align 8
  store ptr %0, ptr %2, align 8
  store ptr null, ptr @_ZN13VM_HeapDumper14_global_dumperE, align 8
  ret void
}

; Function Attrs: mustprogress nounwind uwtable
define linkonce_odr hidden noundef zeroext i1 @_ZN13VM_HeapDumper16is_parallel_dumpEv(ptr noundef nonnull align 8 dereferenceable(160) %0) #1 comdat align 2 {
  %2 = alloca ptr, align 8
  store ptr %0, ptr %2, align 8
  %3 = load ptr, ptr %2, align 8
  %4 = getelementptr inbounds %class.VM_HeapDumper, ptr %3, i32 0, i32 14
  %5 = load i32, ptr %4, align 8
  %6 = icmp ugt i32 %5, 1
  ret i1 %6
}

; Function Attrs: mustprogress nounwind uwtable
define linkonce_odr hidden void @_ZN13VM_HeapDumper17set_global_writerEv(ptr noundef nonnull align 8 dereferenceable(160) %0) #1 comdat align 2 {
  %2 = alloca ptr, align 8
  store ptr %0, ptr %2, align 8
  %3 = load ptr, ptr %2, align 8
  %4 = getelementptr inbounds %class.VM_HeapDumper, ptr %3, i32 0, i32 4
  %5 = load ptr, ptr %4, align 8
  store ptr %5, ptr @_ZN13VM_HeapDumper14_global_writerE, align 8
  ret void
}

; Function Attrs: mustprogress nounwind uwtable
define linkonce_odr hidden void @_ZN13VM_HeapDumper17set_global_dumperEv(ptr noundef nonnull align 8 dereferenceable(160) %0) #1 comdat align 2 {
  %2 = alloca ptr, align 8
  store ptr %0, ptr %2, align 8
  %3 = load ptr, ptr %2, align 8
  store ptr %3, ptr @_ZN13VM_HeapDumper14_global_dumperE, align 8
  ret void
}

; Function Attrs: mustprogress nounwind uwtable
define linkonce_odr hidden noundef zeroext i1 @_ZN8GCLocker9is_activeEv() #1 comdat align 2 {
  %1 = call noundef zeroext i1 @_ZN8GCLocker18is_active_internalEv()
  ret i1 %1
}

; Function Attrs: mustprogress nounwind uwtable
define linkonce_odr hidden noundef ptr @_ZN8Universe4heapEv() #1 comdat align 2 {
  %1 = load ptr, ptr @_ZN8Universe14_collectedHeapE, align 8
  ret ptr %1
}

; Function Attrs: mustprogress nounwind uwtable
define hidden void @_ZN13VM_HeapDumper4doitEv(ptr noundef nonnull align 8 dereferenceable(160) %0) unnamed_addr #1 align 2 {
  %2 = alloca ptr, align 8
  %3 = alloca ptr, align 8
  %4 = alloca ptr, align 8
  %5 = alloca %class.ParallelObjectIterator, align 8
  store ptr %0, ptr %2, align 8
  %6 = load ptr, ptr %2, align 8
  %7 = call noundef ptr @_ZN8Universe4heapEv()
  store ptr %7, ptr %3, align 8
  %8 = load ptr, ptr %3, align 8
  %9 = load ptr, ptr %8, align 8
  %10 = getelementptr inbounds ptr, ptr %9, i64 19
  %11 = load ptr, ptr %10, align 8
  call void %11(ptr noundef nonnull align 8 dereferenceable(104) %8, i1 noundef zeroext false)
  %12 = getelementptr inbounds %class.VM_HeapDumper, ptr %6, i32 0, i32 7
  %13 = load i8, ptr %12, align 8
  %14 = trunc i8 %13 to i1
  br i1 %14, label %15, label %24

15:                                               ; preds = %1
  %16 = call noundef zeroext i1 @_ZN8GCLocker9is_activeEv()
  br i1 %16, label %17, label %18

17:                                               ; preds = %15
  call void (ptr, ...) @_Z7warningPKcz(ptr noundef @.str.16)
  br label %23

18:                                               ; preds = %15
  %19 = load ptr, ptr %3, align 8
  %20 = load ptr, ptr %19, align 8
  %21 = getelementptr inbounds ptr, ptr %20, i64 26
  %22 = load ptr, ptr %21, align 8
  call void %22(ptr noundef nonnull align 8 dereferenceable(104) %19, i32 noundef 7)
  br label %23

23:                                               ; preds = %18, %17
  br label %24

24:                                               ; preds = %23, %1
  call void @_ZN13VM_HeapDumper17set_global_dumperEv(ptr noundef nonnull align 8 dereferenceable(160) %6)
  call void @_ZN13VM_HeapDumper17set_global_writerEv(ptr noundef nonnull align 8 dereferenceable(160) %6)
  %25 = load ptr, ptr %3, align 8
  %26 = load ptr, ptr %25, align 8
  %27 = getelementptr inbounds ptr, ptr %26, i64 51
  %28 = load ptr, ptr %27, align 8
  %29 = call noundef ptr %28(ptr noundef nonnull align 8 dereferenceable(104) %25)
  store ptr %29, ptr %4, align 8
  %30 = load ptr, ptr %4, align 8
  call void @_ZN13VM_HeapDumper21prepare_parallel_dumpEP13WorkerThreads(ptr noundef nonnull align 8 dereferenceable(160) %6, ptr noundef %30)
  %31 = call noundef zeroext i1 @_ZN13VM_HeapDumper16is_parallel_dumpEv(ptr noundef nonnull align 8 dereferenceable(160) %6)
  br i1 %31, label %36, label %32

32:                                               ; preds = %24
  %33 = load ptr, ptr %6, align 8
  %34 = getelementptr inbounds ptr, ptr %33, i64 11
  %35 = load ptr, ptr %34, align 8
  call void %35(ptr noundef nonnull align 8 dereferenceable(160) %6, i32 noundef 0)
  br label %45

36:                                               ; preds = %24
  %37 = getelementptr inbounds %class.VM_HeapDumper, ptr %6, i32 0, i32 14
  %38 = load i32, ptr %37, align 8
  call void @_ZN22ParallelObjectIteratorC1Ej(ptr noundef nonnull align 8 dereferenceable(8) %5, i32 noundef %38)
  %39 = getelementptr inbounds %class.VM_HeapDumper, ptr %6, i32 0, i32 16
  store ptr %5, ptr %39, align 8
  %40 = load ptr, ptr %4, align 8
  %41 = getelementptr inbounds i8, ptr %6, i64 40
  %42 = getelementptr inbounds %class.VM_HeapDumper, ptr %6, i32 0, i32 14
  %43 = load i32, ptr %42, align 8
  call void @_ZN13WorkerThreads8run_taskEP10WorkerTaskj(ptr noundef nonnull align 8 dereferenceable(120) %40, ptr noundef %41, i32 noundef %43)
  %44 = getelementptr inbounds %class.VM_HeapDumper, ptr %6, i32 0, i32 16
  store ptr null, ptr %44, align 8
  call void @_ZN22ParallelObjectIteratorD1Ev(ptr noundef nonnull align 8 dereferenceable(8) %5) #12
  br label %45

45:                                               ; preds = %36, %32
  call void @_ZN13VM_HeapDumper19clear_global_dumperEv(ptr noundef nonnull align 8 dereferenceable(160) %6)
  call void @_ZN13VM_HeapDumper19clear_global_writerEv(ptr noundef nonnull align 8 dereferenceable(160) %6)
  ret void
}