; Function Attrs: mustprogress nounwind uwtable
define hidden void @_ZN13VM_HeapDumper4doitEv(ptr noundef nonnull align 8 dereferenceable(160) %0) unnamed_addr #3 align 2 {
  %2 = alloca %class.ParallelObjectIterator, align 8
  %3 = load ptr, ptr @_ZN8Universe14_collectedHeapE, align 8
  %4 = load ptr, ptr %3, align 8
  %5 = getelementptr inbounds i8, ptr %4, i64 152
  %6 = load ptr, ptr %5, align 8
  tail call void %6(ptr noundef nonnull align 8 dereferenceable(104) %3, i1 noundef zeroext false) #19
  %7 = getelementptr inbounds i8, ptr %0, i64 96
  %8 = load i8, ptr %7, align 8
  %9 = trunc i8 %8 to i1
  br i1 %9, label %10, label %18

10:                                               ; preds = %1
  %11 = load volatile i32, ptr @_ZN8GCLocker15_jni_lock_countE, align 4
  %12 = icmp sgt i32 %11, 0
  br i1 %12, label %13, label %14

13:                                               ; preds = %10
  tail call void (ptr, ...) @_Z7warningPKcz(ptr noundef nonnull @.str.16) #19
  br label %18

14:                                               ; preds = %10
  %15 = load ptr, ptr %3, align 8
  %16 = getelementptr inbounds i8, ptr %15, i64 208
  %17 = load ptr, ptr %16, align 8
  tail call void %17(ptr noundef nonnull align 8 dereferenceable(104) %3, i32 noundef 7) #19
  br label %18

18:                                               ; preds = %13, %14, %1
  store ptr %0, ptr @_ZN13VM_HeapDumper14_global_dumperE, align 8
  %19 = getelementptr inbounds i8, ptr %0, i64 72
  %20 = load ptr, ptr %19, align 8
  store ptr %20, ptr @_ZN13VM_HeapDumper14_global_writerE, align 8
  %21 = load ptr, ptr %3, align 8
  %22 = getelementptr inbounds i8, ptr %21, i64 408
  %23 = load ptr, ptr %22, align 8
  %24 = tail call noundef ptr %23(ptr noundef nonnull align 8 dereferenceable(104) %3) #19
  tail call void @_ZN13VM_HeapDumper21prepare_parallel_dumpEP13WorkerThreads(ptr noundef nonnull align 8 dereferenceable(160) %0, ptr noundef %24)
  %25 = getelementptr inbounds i8, ptr %0, i64 136
  %26 = load i32, ptr %25, align 8
  %27 = icmp ugt i32 %26, 1
  br i1 %27, label %32, label %28

28:                                               ; preds = %18
  %29 = load ptr, ptr %0, align 8
  %30 = getelementptr inbounds i8, ptr %29, i64 88
  %31 = load ptr, ptr %30, align 8
  tail call void %31(ptr noundef nonnull align 8 dereferenceable(160) %0, i32 noundef 0) #19
  br label %36

32:                                               ; preds = %18
  call void @_ZN22ParallelObjectIteratorC1Ej(ptr noundef nonnull align 8 dereferenceable(8) %2, i32 noundef %26) #19
  %33 = getelementptr inbounds i8, ptr %0, i64 152
  store ptr %2, ptr %33, align 8
  %34 = getelementptr inbounds i8, ptr %0, i64 40
  %35 = load i32, ptr %25, align 8
  call void @_ZN13WorkerThreads8run_taskEP10WorkerTaskj(ptr noundef nonnull align 8 dereferenceable(120) %24, ptr noundef nonnull %34, i32 noundef %35) #19
  store ptr null, ptr %33, align 8
  call void @_ZN22ParallelObjectIteratorD1Ev(ptr noundef nonnull align 8 dereferenceable(8) %2) #19
  br label %36

36:                                               ; preds = %32, %28
  store ptr null, ptr @_ZN13VM_HeapDumper14_global_dumperE, align 8
  store ptr null, ptr @_ZN13VM_HeapDumper14_global_writerE, align 8
  ret void
}